; Function Attrs: mustprogress uwtable
define noundef ptr @lean_cstr_to_int(ptr noundef %0) local_unnamed_addr #0 personality ptr @__gxx_personality_v0 {
  %2 = alloca %"class.lean::mpz", align 8
  call void @llvm.lifetime.start.p0(i64 16, ptr nonnull %2) #40
  call void @_ZN4lean3mpzC1EPKc(ptr noundef nonnull align 8 dereferenceable(16) %2, ptr noundef %0)
  %3 = invoke fastcc noundef ptr @_ZN4leanL10mpz_to_intERKNS_3mpzE(ptr noundef nonnull align 8 dereferenceable(16) %2)
          to label %4 unwind label %5

4:                                                ; preds = %1
  call void @_ZN4lean3mpzD1Ev(ptr noundef nonnull align 8 dereferenceable(16) %2) #40
  call void @llvm.lifetime.end.p0(i64 16, ptr nonnull %2) #40
  ret ptr %3

5:                                                ; preds = %1
  %6 = landingpad { ptr, i32 }
          cleanup
  call void @_ZN4lean3mpzD1Ev(ptr noundef nonnull align 8 dereferenceable(16) %2) #40
  call void @llvm.lifetime.end.p0(i64 16, ptr nonnull %2) #40
  resume { ptr, i32 } %6
}